target datalayout = "e-m:e-p270:32:32-p271:32:32-p272:64:64-i64:64-i128:128-f80:128-n8:16:32:64-S128"
target triple = "x86_64-unknown-linux-gnu"

%"class.icu_75::PluralFormat" = type { %"class.icu_75::Format.base", [6 x i8], %"class.icu_75::Locale", %"class.icu_75::MessagePattern", ptr, double, %"class.icu_75::PluralFormat::PluralSelectorAdapter" }
%"class.icu_75::Format.base" = type <{ %"class.icu_75::UObject", [157 x i8], [157 x i8] }>
%"class.icu_75::UObject" = type { ptr }
%"class.icu_75::Locale" = type <{ %"class.icu_75::UObject", [12 x i8], [6 x i8], [4 x i8], [2 x i8], i32, [4 x i8], ptr, [157 x i8], [3 x i8], ptr, i8, [7 x i8] }>
%"class.icu_75::MessagePattern" = type <{ %"class.icu_75::UObject", i32, [4 x i8], %"class.icu_75::UnicodeString", ptr, ptr, i32, [4 x i8], ptr, ptr, i32, i8, i8, i8, i8 }>
%"class.icu_75::UnicodeString" = type { %"class.icu_75::Replaceable", %"union.icu_75::UnicodeString::StackBufferOrFields" }
%"class.icu_75::Replaceable" = type { %"class.icu_75::UObject" }
%"union.icu_75::UnicodeString::StackBufferOrFields" = type { %struct.anon.0, [32 x i8] }
%struct.anon.0 = type { i16, i32, i32, ptr }
%"class.icu_75::PluralFormat::PluralSelectorAdapter" = type { %"class.icu_75::PluralFormat::PluralSelector", ptr }
%"class.icu_75::PluralFormat::PluralSelector" = type { ptr }

; Function Attrs: mustprogress uwtable
define void @_ZN6icu_7512PluralFormat4initEPKNS_11PluralRulesE11UPluralTypeR10UErrorCode(ptr noundef nonnull align 8 dereferenceable(712) %this, ptr noundef %rules, i32 noundef %type, ptr noundef nonnull align 4 dereferenceable(4) %status) #1 align 2 {
entry:
  %this.addr = alloca ptr, align 8
  %rules.addr = alloca ptr, align 8
  %type.addr = alloca i32, align 4
  %status.addr = alloca ptr, align 8
  store ptr %this, ptr %this.addr, align 8
  store ptr %rules, ptr %rules.addr, align 8
  store i32 %type, ptr %type.addr, align 4
  store ptr %status, ptr %status.addr, align 8
  %this1 = load ptr, ptr %this.addr, align 8
  %0 = load ptr, ptr %status.addr, align 8
  %1 = load i32, ptr %0, align 4
  %call = call noundef signext i8 @_ZL9U_FAILURE10UErrorCode(i32 noundef %1)
  %tobool = icmp ne i8 %call, 0
  br i1 %tobool, label %if.then, label %if.end

if.then:                                          ; preds = %entry
  br label %return

if.end:                                           ; preds = %entry
  %2 = load ptr, ptr %rules.addr, align 8
  %cmp = icmp eq ptr %2, null
  br i1 %cmp, label %if.then2, label %if.else

if.then2:                                         ; preds = %if.end
  %locale = getelementptr inbounds %"class.icu_75::PluralFormat", ptr %this1, i32 0, i32 2
  %3 = load i32, ptr %type.addr, align 4
  %4 = load ptr, ptr %status.addr, align 8
  %call3 = call noundef ptr @_ZN6icu_7511PluralRules9forLocaleERKNS_6LocaleE11UPluralTypeR10UErrorCode(ptr noundef nonnull align 8 dereferenceable(217) %locale, i32 noundef %3, ptr noundef nonnull align 4 dereferenceable(4) %4)
  %pluralRulesWrapper = getelementptr inbounds %"class.icu_75::PluralFormat", ptr %this1, i32 0, i32 6
  %pluralRules = getelementptr inbounds %"class.icu_75::PluralFormat::PluralSelectorAdapter", ptr %pluralRulesWrapper, i32 0, i32 1
  store ptr %call3, ptr %pluralRules, align 8
  br label %if.end12

if.else:                                          ; preds = %if.end
  %5 = load ptr, ptr %rules.addr, align 8
  %call4 = call noundef ptr @_ZNK6icu_7511PluralRules5cloneEv(ptr noundef nonnull align 8 dereferenceable(28) %5)
  %pluralRulesWrapper5 = getelementptr inbounds %"class.icu_75::PluralFormat", ptr %this1, i32 0, i32 6
  %pluralRules6 = getelementptr inbounds %"class.icu_75::PluralFormat::PluralSelectorAdapter", ptr %pluralRulesWrapper5, i32 0, i32 1
  store ptr %call4, ptr %pluralRules6, align 8
  %pluralRulesWrapper7 = getelementptr inbounds %"class.icu_75::PluralFormat", ptr %this1, i32 0, i32 6
  %pluralRules8 = getelementptr inbounds %"class.icu_75::PluralFormat::PluralSelectorAdapter", ptr %pluralRulesWrapper7, i32 0, i32 1
  %6 = load ptr, ptr %pluralRules8, align 8
  %cmp9 = icmp eq ptr %6, null
  br i1 %cmp9, label %if.then10, label %if.end11

if.then10:                                        ; preds = %if.else
  %7 = load ptr, ptr %status.addr, align 8
  store i32 7, ptr %7, align 4
  br label %return

if.end11:                                         ; preds = %if.else
  br label %if.end12

if.end12:                                         ; preds = %if.end11, %if.then2
  %locale13 = getelementptr inbounds %"class.icu_75::PluralFormat", ptr %this1, i32 0, i32 2
  %8 = load ptr, ptr %status.addr, align 8
  %call14 = call noundef ptr @_ZN6icu_7512NumberFormat14createInstanceERKNS_6LocaleER10UErrorCode(ptr noundef nonnull align 8 dereferenceable(217) %locale13, ptr noundef nonnull align 4 dereferenceable(4) %8)
  %numberFormat = getelementptr inbounds %"class.icu_75::PluralFormat", ptr %this1, i32 0, i32 4
  store ptr %call14, ptr %numberFormat, align 8
  br label %return

return:                                           ; preds = %if.end12, %if.then10, %if.then
  ret void
}

; Function Attrs: mustprogress nounwind uwtable
define void @_ZN6icu_7512PluralFormat21PluralSelectorAdapter5resetEv(ptr noundef nonnull align 8 dereferenceable(16) %this) #0 align 2 {
entry:
  %this.addr = alloca ptr, align 8
  store ptr %this, ptr %this.addr, align 8
  %this1 = load ptr, ptr %this.addr, align 8
  %pluralRules = getelementptr inbounds %"class.icu_75::PluralFormat::PluralSelectorAdapter", ptr %this1, i32 0, i32 1
  %0 = load ptr, ptr %pluralRules, align 8
  %isnull = icmp eq ptr %0, null
  br i1 %isnull, label %delete.end, label %delete.notnull

delete.notnull:                                   ; preds = %entry
  %vtable = load ptr, ptr %0, align 8
  %vfn = getelementptr inbounds ptr, ptr %vtable, i64 1
  %1 = load ptr, ptr %vfn, align 8
  call void %1(ptr noundef nonnull align 8 dereferenceable(28) %0) #10
  br label %delete.end

delete.end:                                       ; preds = %delete.notnull, %entry
  %pluralRules2 = getelementptr inbounds %"class.icu_75::PluralFormat::PluralSelectorAdapter", ptr %this1, i32 0, i32 1
  store ptr null, ptr %pluralRules2, align 8
  ret void
}

; Function Attrs: mustprogress nounwind uwtable
define internal noundef signext i8 @_ZL9U_FAILURE10UErrorCode(i32 noundef %code) #0 {
entry:
  %code.addr = alloca i32, align 4
  store i32 %code, ptr %code.addr, align 4
  %0 = load i32, ptr %code.addr, align 4
  %cmp = icmp sgt i32 %0, 0
  %conv = zext i1 %cmp to i8
  ret i8 %conv
}

; Function Attrs: mustprogress uwtable
define void @_ZN6icu_7512PluralFormat9setLocaleERKNS_6LocaleER10UErrorCode(ptr noundef nonnull align 8 dereferenceable(712) %this, ptr noundef nonnull align 8 dereferenceable(217) %loc, ptr noundef nonnull align 4 dereferenceable(4) %status) #1 align 2 {
entry:
  %this.addr = alloca ptr, align 8
  %loc.addr = alloca ptr, align 8
  %status.addr = alloca ptr, align 8
  store ptr %this, ptr %this.addr, align 8
  store ptr %loc, ptr %loc.addr, align 8
  store ptr %status, ptr %status.addr, align 8
  %this1 = load ptr, ptr %this.addr, align 8
  %0 = load ptr, ptr %status.addr, align 8
  %1 = load i32, ptr %0, align 4
  %call = call noundef signext i8 @_ZL9U_FAILURE10UErrorCode(i32 noundef %1)
  %tobool = icmp ne i8 %call, 0
  br i1 %tobool, label %if.then, label %if.end

if.then:                                          ; preds = %entry
  br label %return

if.end:                                           ; preds = %entry
  %2 = load ptr, ptr %loc.addr, align 8
  %locale = getelementptr inbounds %"class.icu_75::PluralFormat", ptr %this1, i32 0, i32 2
  %call2 = call noundef nonnull align 8 dereferenceable(217) ptr @_ZN6icu_756LocaleaSERKS0_(ptr noundef nonnull align 8 dereferenceable(217) %locale, ptr noundef nonnull align 8 dereferenceable(217) %2)
  %msgPattern = getelementptr inbounds %"class.icu_75::PluralFormat", ptr %this1, i32 0, i32 3
  call void @_ZN6icu_7514MessagePattern5clearEv(ptr noundef nonnull align 8 dereferenceable(127) %msgPattern)
  %numberFormat = getelementptr inbounds %"class.icu_75::PluralFormat", ptr %this1, i32 0, i32 4
  %3 = load ptr, ptr %numberFormat, align 8
  %isnull = icmp eq ptr %3, null
  br i1 %isnull, label %delete.end, label %delete.notnull

delete.notnull:                                   ; preds = %if.end
  %vtable = load ptr, ptr %3, align 8
  %vfn = getelementptr inbounds ptr, ptr %vtable, i64 1
  %4 = load ptr, ptr %vfn, align 8
  call void %4(ptr noundef nonnull align 8 dereferenceable(356) %3) #10
  br label %delete.end

delete.end:                                       ; preds = %delete.notnull, %if.end
  %offset = getelementptr inbounds %"class.icu_75::PluralFormat", ptr %this1, i32 0, i32 5
  store double 0.000000e+00, ptr %offset, align 8
  %numberFormat3 = getelementptr inbounds %"class.icu_75::PluralFormat", ptr %this1, i32 0, i32 4
  store ptr null, ptr %numberFormat3, align 8
  %pluralRulesWrapper = getelementptr inbounds %"class.icu_75::PluralFormat", ptr %this1, i32 0, i32 6
  call void @_ZN6icu_7512PluralFormat21PluralSelectorAdapter5resetEv(ptr noundef nonnull align 8 dereferenceable(16) %pluralRulesWrapper)
  %5 = load ptr, ptr %status.addr, align 8
  call void @_ZN6icu_7512PluralFormat4initEPKNS_11PluralRulesE11UPluralTypeR10UErrorCode(ptr noundef nonnull align 8 dereferenceable(712) %this1, ptr noundef null, i32 noundef 0, ptr noundef nonnull align 4 dereferenceable(4) %5)
  br label %return

return:                                           ; preds = %delete.end, %if.then
  ret void
}