; Function Attrs: mustprogress uwtable
define void @_ZN6icu_7512PluralFormat9setLocaleERKNS_6LocaleER10UErrorCode(ptr noundef nonnull align 8 dereferenceable(712) %this, ptr noundef nonnull align 8 dereferenceable(217) %loc, ptr noundef nonnull align 4 dereferenceable(4) %status) local_unnamed_addr #1 align 2 {
entry:
  %0 = load i32, ptr %status, align 4
  %cmp.i = icmp slt i32 %0, 1
  br i1 %cmp.i, label %if.end, label %return

if.end:                                           ; preds = %entry
  %locale = getelementptr inbounds i8, ptr %this, i64 328
  %call2 = tail call noundef nonnull align 8 dereferenceable(217) ptr @_ZN6icu_756LocaleaSERKS0_(ptr noundef nonnull align 8 dereferenceable(217) %locale, ptr noundef nonnull align 8 dereferenceable(217) %loc)
  %msgPattern = getelementptr inbounds i8, ptr %this, i64 552
  tail call void @_ZN6icu_7514MessagePattern5clearEv(ptr noundef nonnull align 8 dereferenceable(127) %msgPattern)
  %numberFormat = getelementptr inbounds i8, ptr %this, i64 680
  %1 = load ptr, ptr %numberFormat, align 8
  %isnull = icmp eq ptr %1, null
  br i1 %isnull, label %delete.end, label %delete.notnull

delete.notnull:                                   ; preds = %if.end
  %vtable = load ptr, ptr %1, align 8
  %vfn = getelementptr inbounds i8, ptr %vtable, i64 8
  %2 = load ptr, ptr %vfn, align 8
  tail call void %2(ptr noundef nonnull align 8 dereferenceable(356) %1) #15
  br label %delete.end

delete.end:                                       ; preds = %delete.notnull, %if.end
  %pluralRules.i = getelementptr inbounds i8, ptr %this, i64 704
  tail call void @llvm.memset.p0.i64(ptr noundef nonnull align 8 dereferenceable(16) %numberFormat, i8 0, i64 16, i1 false)
  %3 = load ptr, ptr %pluralRules.i, align 8
  %isnull.i = icmp eq ptr %3, null
  br i1 %isnull.i, label %_ZN6icu_7512PluralFormat21PluralSelectorAdapter5resetEv.exit, label %delete.notnull.i

delete.notnull.i:                                 ; preds = %delete.end
  %vtable.i = load ptr, ptr %3, align 8
  %vfn.i = getelementptr inbounds i8, ptr %vtable.i, i64 8
  %4 = load ptr, ptr %vfn.i, align 8
  tail call void %4(ptr noundef nonnull align 8 dereferenceable(28) %3) #15
  br label %_ZN6icu_7512PluralFormat21PluralSelectorAdapter5resetEv.exit

_ZN6icu_7512PluralFormat21PluralSelectorAdapter5resetEv.exit: ; preds = %delete.end, %delete.notnull.i
  store ptr null, ptr %pluralRules.i, align 8
  %5 = load i32, ptr %status, align 4
  %cmp.i.i = icmp slt i32 %5, 1
  br i1 %cmp.i.i, label %if.end.i, label %return

if.end.i:                                         ; preds = %_ZN6icu_7512PluralFormat21PluralSelectorAdapter5resetEv.exit
  %call3.i = tail call noundef ptr @_ZN6icu_7511PluralRules9forLocaleERKNS_6LocaleE11UPluralTypeR10UErrorCode(ptr noundef nonnull align 8 dereferenceable(217) %locale, i32 noundef 0, ptr noundef nonnull align 4 dereferenceable(4) %status)
  store ptr %call3.i, ptr %pluralRules.i, align 8
  %call14.i = tail call noundef ptr @_ZN6icu_7512NumberFormat14createInstanceERKNS_6LocaleER10UErrorCode(ptr noundef nonnull align 8 dereferenceable(217) %locale, ptr noundef nonnull align 4 dereferenceable(4) %status)
  store ptr %call14.i, ptr %numberFormat, align 8
  br label %return

return:                                           ; preds = %if.end.i, %_ZN6icu_7512PluralFormat21PluralSelectorAdapter5resetEv.exit, %entry
  ret void
}